target datalayout = "e-m:e-p270:32:32-p271:32:32-p272:64:64-i64:64-i128:128-f80:128-n8:16:32:64-S128"
target triple = "x86_64-pc-linux-gnu"

%"class.cv::utils::trace::details::Region" = type <{ ptr, i32, [4 x i8] }>

; Function Attrs: inlinehint mustprogress nounwind uwtable
define linkonce_odr noundef float @_ZSt3absf(float noundef %0) #3 comdat {
  %2 = alloca float, align 4
  store float %0, ptr %2, align 4, !tbaa !14
  %3 = load float, ptr %2, align 4, !tbaa !14
  %4 = call float @llvm.fabs.f32(float %3)
  ret float %4
}

; Function Attrs: inlinehint mustprogress uwtable
define internal noundef float @_ZN2cv3hal12cpu_baseline12_GLOBAL__N_18atan_f32Eff(float noundef %0, float noundef %1) #6 {
  %3 = alloca float, align 4
  %4 = alloca float, align 4
  %5 = alloca float, align 4
  %6 = alloca float, align 4
  %7 = alloca float, align 4
  %8 = alloca float, align 4
  %9 = alloca float, align 4
  store float %0, ptr %3, align 4, !tbaa !14
  store float %1, ptr %4, align 4, !tbaa !14
  call void @llvm.lifetime.start.p0(i64 4, ptr %5) #14
  %10 = load float, ptr %4, align 4, !tbaa !14
  %11 = call noundef float @_ZSt3absf(float noundef %10)
  store float %11, ptr %5, align 4, !tbaa !14
  call void @llvm.lifetime.start.p0(i64 4, ptr %6) #14
  %12 = load float, ptr %3, align 4, !tbaa !14
  %13 = call noundef float @_ZSt3absf(float noundef %12)
  store float %13, ptr %6, align 4, !tbaa !14
  call void @llvm.lifetime.start.p0(i64 4, ptr %7) #14
  call void @llvm.lifetime.start.p0(i64 4, ptr %8) #14
  call void @llvm.lifetime.start.p0(i64 4, ptr %9) #14
  %14 = load float, ptr %5, align 4, !tbaa !14
  %15 = load float, ptr %6, align 4, !tbaa !14
  %16 = fcmp oge float %14, %15
  br i1 %16, label %17, label %33

17:                                               ; preds = %2
  %18 = load float, ptr %6, align 4, !tbaa !14
  %19 = load float, ptr %5, align 4, !tbaa !14
  %20 = fadd float %19, 0x3CB0000000000000
  %21 = fdiv float %18, %20
  store float %21, ptr %8, align 4, !tbaa !14
  %22 = load float, ptr %8, align 4, !tbaa !14
  %23 = load float, ptr %8, align 4, !tbaa !14
  %24 = fmul float %22, %23
  store float %24, ptr %9, align 4, !tbaa !14
  %25 = load float, ptr %9, align 4, !tbaa !14
  %26 = call float @llvm.fmuladd.f32(float 0xC004515B20000000, float %25, float 0x4021D3F7E0000000)
  %27 = load float, ptr %9, align 4, !tbaa !14
  %28 = call float @llvm.fmuladd.f32(float %26, float %27, float 0xC032AADDC0000000)
  %29 = load float, ptr %9, align 4, !tbaa !14
  %30 = call float @llvm.fmuladd.f32(float %28, float %29, float 0x404CA44DE0000000)
  %31 = load float, ptr %8, align 4, !tbaa !14
  %32 = fmul float %30, %31
  store float %32, ptr %7, align 4, !tbaa !14
  br label %50

33:                                               ; preds = %2
  %34 = load float, ptr %5, align 4, !tbaa !14
  %35 = load float, ptr %6, align 4, !tbaa !14
  %36 = fadd float %35, 0x3CB0000000000000
  %37 = fdiv float %34, %36
  store float %37, ptr %8, align 4, !tbaa !14
  %38 = load float, ptr %8, align 4, !tbaa !14
  %39 = load float, ptr %8, align 4, !tbaa !14
  %40 = fmul float %38, %39
  store float %40, ptr %9, align 4, !tbaa !14
  %41 = load float, ptr %9, align 4, !tbaa !14
  %42 = call float @llvm.fmuladd.f32(float 0xC004515B20000000, float %41, float 0x4021D3F7E0000000)
  %43 = load float, ptr %9, align 4, !tbaa !14
  %44 = call float @llvm.fmuladd.f32(float %42, float %43, float 0xC032AADDC0000000)
  %45 = load float, ptr %9, align 4, !tbaa !14
  %46 = call float @llvm.fmuladd.f32(float %44, float %45, float 0x404CA44DE0000000)
  %47 = load float, ptr %8, align 4, !tbaa !14
  %48 = fneg float %46
  %49 = call float @llvm.fmuladd.f32(float %48, float %47, float 9.000000e+01)
  store float %49, ptr %7, align 4, !tbaa !14
  br label %50

50:                                               ; preds = %33, %17
  %51 = load float, ptr %4, align 4, !tbaa !14
  %52 = fcmp olt float %51, 0.000000e+00
  br i1 %52, label %53, label %56

53:                                               ; preds = %50
  %54 = load float, ptr %7, align 4, !tbaa !14
  %55 = fsub float 1.800000e+02, %54
  store float %55, ptr %7, align 4, !tbaa !14
  br label %56

56:                                               ; preds = %53, %50
  %57 = load float, ptr %3, align 4, !tbaa !14
  %58 = fcmp olt float %57, 0.000000e+00
  br i1 %58, label %59, label %62

59:                                               ; preds = %56
  %60 = load float, ptr %7, align 4, !tbaa !14
  %61 = fsub float 3.600000e+02, %60
  store float %61, ptr %7, align 4, !tbaa !14
  br label %62

62:                                               ; preds = %59, %56
  %63 = load float, ptr %7, align 4, !tbaa !14
  call void @llvm.lifetime.end.p0(i64 4, ptr %9) #14
  call void @llvm.lifetime.end.p0(i64 4, ptr %8) #14
  call void @llvm.lifetime.end.p0(i64 4, ptr %7) #14
  call void @llvm.lifetime.end.p0(i64 4, ptr %6) #14
  call void @llvm.lifetime.end.p0(i64 4, ptr %5) #14
  ret float %63
}

; Function Attrs: inlinehint mustprogress nounwind uwtable
define linkonce_odr noundef float @_ZSt4sqrtf(float noundef %0) #3 comdat {
  %2 = alloca float, align 4
  store float %0, ptr %2, align 4, !tbaa !14
  %3 = load float, ptr %2, align 4, !tbaa !14
  %4 = call float @sqrtf(float noundef %3) #14, !tbaa !8
  ret float %4
}

; Function Attrs: inlinehint mustprogress nounwind uwtable
define linkonce_odr hidden void @_ZN2cv5utils5trace7details6RegionD2Ev(ptr noundef nonnull align 8 dereferenceable(12) %0) unnamed_addr #3 comdat align 2 personality ptr @__gxx_personality_v0 {
  %2 = alloca ptr, align 8
  store ptr %0, ptr %2, align 8, !tbaa !18
  %3 = load ptr, ptr %2, align 8
  %4 = getelementptr inbounds nuw %"class.cv::utils::trace::details::Region", ptr %3, i32 0, i32 1
  %5 = load i32, ptr %4, align 8, !tbaa !20
  %6 = icmp ne i32 %5, 0
  br i1 %6, label %7, label %9

7:                                                ; preds = %1
  invoke void @_ZN2cv5utils5trace7details6Region7destroyEv(ptr noundef nonnull align 8 dereferenceable(12) %3)
          to label %8 unwind label %10

8:                                                ; preds = %7
  br label %9

9:                                                ; preds = %8, %1
  ret void

10:                                               ; preds = %7
  %11 = landingpad { ptr, i32 }
          catch ptr null
  %12 = extractvalue { ptr, i32 } %11, 0
  call void @__clang_call_terminate(ptr %12) #15
  unreachable
}

; Function Attrs: mustprogress uwtable
define internal void @_ZN2cv3hal12cpu_baselineL15cartToPolar32f_EPKfS3_PfS4_ib(ptr noundef %0, ptr noundef %1, ptr noundef %2, ptr noundef %3, i32 noundef %4, i1 noundef zeroext %5) #0 {
  %7 = alloca ptr, align 8
  %8 = alloca ptr, align 8
  %9 = alloca ptr, align 8
  %10 = alloca ptr, align 8
  %11 = alloca i32, align 4
  %12 = alloca i8, align 1
  %13 = alloca float, align 4
  %14 = alloca i32, align 4
  %15 = alloca float, align 4
  %16 = alloca float, align 4
  store ptr %0, ptr %7, align 8, !tbaa !3
  store ptr %1, ptr %8, align 8, !tbaa !3
  store ptr %2, ptr %9, align 8, !tbaa !3
  store ptr %3, ptr %10, align 8, !tbaa !3
  store i32 %4, ptr %11, align 4, !tbaa !8
  %17 = zext i1 %5 to i8
  store i8 %17, ptr %12, align 1, !tbaa !10
  call void @llvm.lifetime.start.p0(i64 4, ptr %13) #14
  %18 = load i8, ptr %12, align 1, !tbaa !10, !range !12, !noundef !13
  %19 = trunc i8 %18 to i1
  %20 = select i1 %19, float 1.000000e+00, float 0x3F91DF46A0000000
  store float %20, ptr %13, align 4, !tbaa !14
  call void @llvm.lifetime.start.p0(i64 4, ptr %14) #14
  store i32 0, ptr %14, align 4, !tbaa !8
  br label %21

21:                                               ; preds = %56, %6
  %22 = load i32, ptr %14, align 4, !tbaa !8
  %23 = load i32, ptr %11, align 4, !tbaa !8
  %24 = icmp slt i32 %22, %23
  br i1 %24, label %25, label %59

25:                                               ; preds = %21
  call void @llvm.lifetime.start.p0(i64 4, ptr %15) #14
  %26 = load ptr, ptr %7, align 8, !tbaa !3
  %27 = load i32, ptr %14, align 4, !tbaa !8
  %28 = sext i32 %27 to i64
  %29 = getelementptr inbounds float, ptr %26, i64 %28
  %30 = load float, ptr %29, align 4, !tbaa !14
  store float %30, ptr %15, align 4, !tbaa !14
  call void @llvm.lifetime.start.p0(i64 4, ptr %16) #14
  %31 = load ptr, ptr %8, align 8, !tbaa !3
  %32 = load i32, ptr %14, align 4, !tbaa !8
  %33 = sext i32 %32 to i64
  %34 = getelementptr inbounds float, ptr %31, i64 %33
  %35 = load float, ptr %34, align 4, !tbaa !14
  store float %35, ptr %16, align 4, !tbaa !14
  %36 = load float, ptr %15, align 4, !tbaa !14
  %37 = load float, ptr %15, align 4, !tbaa !14
  %38 = load float, ptr %16, align 4, !tbaa !14
  %39 = load float, ptr %16, align 4, !tbaa !14
  %40 = fmul float %38, %39
  %41 = call float @llvm.fmuladd.f32(float %36, float %37, float %40)
  %42 = call noundef float @_ZSt4sqrtf(float noundef %41)
  %43 = load ptr, ptr %9, align 8, !tbaa !3
  %44 = load i32, ptr %14, align 4, !tbaa !8
  %45 = sext i32 %44 to i64
  %46 = getelementptr inbounds float, ptr %43, i64 %45
  store float %42, ptr %46, align 4, !tbaa !14
  %47 = load float, ptr %16, align 4, !tbaa !14
  %48 = load float, ptr %15, align 4, !tbaa !14
  %49 = call noundef float @_ZN2cv3hal12cpu_baseline12_GLOBAL__N_18atan_f32Eff(float noundef %47, float noundef %48)
  %50 = load float, ptr %13, align 4, !tbaa !14
  %51 = fmul float %49, %50
  %52 = load ptr, ptr %10, align 8, !tbaa !3
  %53 = load i32, ptr %14, align 4, !tbaa !8
  %54 = sext i32 %53 to i64
  %55 = getelementptr inbounds float, ptr %52, i64 %54
  store float %51, ptr %55, align 4, !tbaa !14
  call void @llvm.lifetime.end.p0(i64 4, ptr %16) #14
  call void @llvm.lifetime.end.p0(i64 4, ptr %15) #14
  br label %56

56:                                               ; preds = %25
  %57 = load i32, ptr %14, align 4, !tbaa !8
  %58 = add nsw i32 %57, 1
  store i32 %58, ptr %14, align 4, !tbaa !8
  br label %21, !llvm.loop !16

59:                                               ; preds = %21
  call void @llvm.lifetime.end.p0(i64 4, ptr %14) #14
  call void @llvm.lifetime.end.p0(i64 4, ptr %13) #14
  ret void
}

; Function Attrs: mustprogress uwtable
define hidden void @_ZN2cv3hal12cpu_baseline14cartToPolar32fEPKfS3_PfS4_ib(ptr noundef %0, ptr noundef %1, ptr noundef %2, ptr noundef %3, i32 noundef %4, i1 noundef zeroext %5) #0 personality ptr @__gxx_personality_v0 {
  %7 = alloca ptr, align 8
  %8 = alloca ptr, align 8
  %9 = alloca ptr, align 8
  %10 = alloca ptr, align 8
  %11 = alloca i32, align 4
  %12 = alloca i8, align 1
  %13 = alloca %"class.cv::utils::trace::details::Region", align 8
  %14 = alloca ptr, align 8
  %15 = alloca i32, align 4
  store ptr %0, ptr %7, align 8, !tbaa !3
  store ptr %1, ptr %8, align 8, !tbaa !3
  store ptr %2, ptr %9, align 8, !tbaa !3
  store ptr %3, ptr %10, align 8, !tbaa !3
  store i32 %4, ptr %11, align 4, !tbaa !8
  %16 = zext i1 %5 to i8
  store i8 %16, ptr %12, align 1, !tbaa !10
  call void @llvm.lifetime.start.p0(i64 16, ptr %13) #14
  call void @_ZN2cv5utils5trace7details6RegionC1ERKNS3_21LocationStaticStorageE(ptr noundef nonnull align 8 dereferenceable(12) %13, ptr noundef nonnull align 8 dereferenceable(32) @_ZZN2cv3hal12cpu_baseline14cartToPolar32fEPKfS3_PfS4_ibE25__cv_trace_location_fn173)
  %17 = load ptr, ptr %7, align 8, !tbaa !3
  %18 = load ptr, ptr %8, align 8, !tbaa !3
  %19 = load ptr, ptr %9, align 8, !tbaa !3
  %20 = load ptr, ptr %10, align 8, !tbaa !3
  %21 = load i32, ptr %11, align 4, !tbaa !8
  %22 = load i8, ptr %12, align 1, !tbaa !10, !range !12, !noundef !13
  %23 = trunc i8 %22 to i1
  invoke void @_ZN2cv3hal12cpu_baselineL15cartToPolar32f_EPKfS3_PfS4_ib(ptr noundef %17, ptr noundef %18, ptr noundef %19, ptr noundef %20, i32 noundef %21, i1 noundef zeroext %23)
          to label %24 unwind label %25

24:                                               ; preds = %6
  call void @_ZN2cv5utils5trace7details6RegionD2Ev(ptr noundef nonnull align 8 dereferenceable(12) %13) #14
  call void @llvm.lifetime.end.p0(i64 16, ptr %13) #14
  ret void

25:                                               ; preds = %6
  %26 = landingpad { ptr, i32 }
          cleanup
  %27 = extractvalue { ptr, i32 } %26, 0
  store ptr %27, ptr %14, align 8
  %28 = extractvalue { ptr, i32 } %26, 1
  store i32 %28, ptr %15, align 4
  call void @_ZN2cv5utils5trace7details6RegionD2Ev(ptr noundef nonnull align 8 dereferenceable(12) %13) #14
  call void @llvm.lifetime.end.p0(i64 16, ptr %13) #14
  br label %29

29:                                               ; preds = %25
  %30 = load ptr, ptr %14, align 8
  %31 = load i32, ptr %15, align 4
  %32 = insertvalue { ptr, i32 } poison, ptr %30, 0
  %33 = insertvalue { ptr, i32 } %32, i32 %31, 1
  resume { ptr, i32 } %33
}