; Function Attrs: mustprogress uwtable
define hidden void @_ZN2cv3hal12cpu_baseline14cartToPolar32fEPKfS3_PfS4_ib(ptr noundef readonly captures(none) %0, ptr noundef readonly captures(none) %1, ptr noundef writeonly captures(none) %2, ptr noundef writeonly captures(none) %3, i32 noundef %4, i1 noundef zeroext %5) local_unnamed_addr #0 personality ptr @__gxx_personality_v0 {
  %7 = alloca %"class.cv::utils::trace::details::Region", align 8
  call void @llvm.lifetime.start.p0(i64 16, ptr nonnull %7) #12
  call void @_ZN2cv5utils5trace7details6RegionC1ERKNS3_21LocationStaticStorageE(ptr noundef nonnull align 8 dereferenceable(12) %7, ptr noundef nonnull align 8 dereferenceable(32) @_ZZN2cv3hal12cpu_baseline14cartToPolar32fEPKfS3_PfS4_ibE25__cv_trace_location_fn173)
  %8 = select i1 %5, float 1.000000e+00, float 0x3F91DF46A0000000
  %9 = icmp sgt i32 %4, 0
  br i1 %9, label %.lr.ph.preheader.i, label %_ZN2cv3hal12cpu_baselineL15cartToPolar32f_EPKfS3_PfS4_ib.exit

.lr.ph.preheader.i:                               ; preds = %6
  %wide.trip.count.i = zext nneg i32 %4 to i64
  br label %.lr.ph.i

.lr.ph.i:                                         ; preds = %_ZN2cv3hal12cpu_baseline12_GLOBAL__N_18atan_f32Eff.exit.i, %.lr.ph.preheader.i
  %indvars.iv.i = phi i64 [ 0, %.lr.ph.preheader.i ], [ %indvars.iv.next.i, %_ZN2cv3hal12cpu_baseline12_GLOBAL__N_18atan_f32Eff.exit.i ]
  %10 = getelementptr inbounds nuw float, ptr %0, i64 %indvars.iv.i
  %11 = load float, ptr %10, align 4, !tbaa !3
  %12 = getelementptr inbounds nuw float, ptr %1, i64 %indvars.iv.i
  %13 = load float, ptr %12, align 4, !tbaa !3
  %14 = fmul float %13, %13
  %15 = call float @llvm.fmuladd.f32(float %11, float %11, float %14)
  %sqrt.i = call float @llvm.sqrt.f32(float %15)
  %16 = getelementptr inbounds nuw float, ptr %2, i64 %indvars.iv.i
  store float %sqrt.i, ptr %16, align 4, !tbaa !3
  %17 = call noundef float @llvm.fabs.f32(float %11)
  %18 = call noundef float @llvm.fabs.f32(float %13)
  %19 = fcmp ult float %17, %18
  br i1 %19, label %28, label %20

20:                                               ; preds = %.lr.ph.i
  %21 = fadd float %17, 0x3CB0000000000000
  %22 = fdiv float %18, %21
  %23 = fmul float %22, %22
  %24 = call float @llvm.fmuladd.f32(float %23, float 0xC004515B20000000, float 0x4021D3F7E0000000)
  %25 = call float @llvm.fmuladd.f32(float %24, float %23, float 0xC032AADDC0000000)
  %26 = call float @llvm.fmuladd.f32(float %25, float %23, float 0x404CA44DE0000000)
  %27 = fmul float %22, %26
  br label %_ZN2cv3hal12cpu_baseline12_GLOBAL__N_18atan_f32Eff.exit.i

28:                                               ; preds = %.lr.ph.i
  %29 = fadd float %18, 0x3CB0000000000000
  %30 = fdiv float %17, %29
  %31 = fmul float %30, %30
  %32 = call float @llvm.fmuladd.f32(float %31, float 0xC004515B20000000, float 0x4021D3F7E0000000)
  %33 = call float @llvm.fmuladd.f32(float %32, float %31, float 0xC032AADDC0000000)
  %34 = call float @llvm.fmuladd.f32(float %33, float %31, float 0x404CA44DE0000000)
  %35 = fneg float %34
  %36 = call float @llvm.fmuladd.f32(float %35, float %30, float 9.000000e+01)
  br label %_ZN2cv3hal12cpu_baseline12_GLOBAL__N_18atan_f32Eff.exit.i

_ZN2cv3hal12cpu_baseline12_GLOBAL__N_18atan_f32Eff.exit.i: ; preds = %28, %20
  %.0.i.i = phi float [ %27, %20 ], [ %36, %28 ]
  %37 = fcmp olt float %11, 0.000000e+00
  %38 = fsub float 1.800000e+02, %.0.i.i
  %.1.i.i = select i1 %37, float %38, float %.0.i.i
  %39 = fcmp olt float %13, 0.000000e+00
  %40 = fsub float 3.600000e+02, %.1.i.i
  %.2.i.i = select i1 %39, float %40, float %.1.i.i
  %41 = fmul float %8, %.2.i.i
  %42 = getelementptr inbounds nuw float, ptr %3, i64 %indvars.iv.i
  store float %41, ptr %42, align 4, !tbaa !3
  %indvars.iv.next.i = add nuw nsw i64 %indvars.iv.i, 1
  %exitcond.not.i = icmp eq i64 %indvars.iv.next.i, %wide.trip.count.i
  br i1 %exitcond.not.i, label %_ZN2cv3hal12cpu_baselineL15cartToPolar32f_EPKfS3_PfS4_ib.exit, label %.lr.ph.i, !llvm.loop !7

_ZN2cv3hal12cpu_baselineL15cartToPolar32f_EPKfS3_PfS4_ib.exit: ; preds = %_ZN2cv3hal12cpu_baseline12_GLOBAL__N_18atan_f32Eff.exit.i, %6
  %43 = getelementptr inbounds nuw i8, ptr %7, i64 8
  %44 = load i32, ptr %43, align 8, !tbaa !9
  %.not.i = icmp eq i32 %44, 0
  br i1 %.not.i, label %_ZN2cv5utils5trace7details6RegionD2Ev.exit, label %45

45:                                               ; preds = %_ZN2cv3hal12cpu_baselineL15cartToPolar32f_EPKfS3_PfS4_ib.exit
  invoke void @_ZN2cv5utils5trace7details6Region7destroyEv(ptr noundef nonnull align 8 dereferenceable(12) %7)
          to label %_ZN2cv5utils5trace7details6RegionD2Ev.exit unwind label %46

46:                                               ; preds = %45
  %47 = landingpad { ptr, i32 }
          catch ptr null
  %48 = extractvalue { ptr, i32 } %47, 0
  call void @__clang_call_terminate(ptr %48) #13
  unreachable

_ZN2cv5utils5trace7details6RegionD2Ev.exit:       ; preds = %_ZN2cv3hal12cpu_baselineL15cartToPolar32f_EPKfS3_PfS4_ib.exit, %45
  call void @llvm.lifetime.end.p0(i64 16, ptr nonnull %7) #12
  ret void
}